c__builtin__
set
p0
((lp1
I2
aI4
aI6
aI8
aI10
aI12
aI14
aI16
aI18
aI20
aI22
aI24
aI26
aI28
aI30
aI32
aI34
aI36
aI38
aI39
aI41
aI43
aI53
aI54
aI55
aI57
aI58
aI68
aI69
aI70
aI72
aI82
aI83
aI84
aI86
aI88
aI90
aI91
aI101
aI102
aI103
aI105
aI115
aI116
aI117
aI119
aI120
aI122
aI124
aI131
aI135
aI136
aI137
aI139
aI141
aI151
aI152
aI153
aI155
aI157
aI164
aI168
aI169
aI170
aI172
aI179
aI183
aI184
aI185
aI187
aI200
aI205
aI206
aI212
aI213
aI217
aI219
aI232
aI237
aI238
aI244
aI245
aI249
aI259
aI260
aI261
aI268
aI275
aI282
aI286
aI287
aI293
aI294
aI302
aI303
aI304
aI308
aI309
aI310
aI314
aI316
aI323
aI324
aI328
aI329
aI330
aI344
aI352
aI356
aI357
aI358
aI360
aI364
aI365
aI366
aI371
aI372
aI373
aI377
aI379
aI389
aI390
aI391
aI393
aI395
aI397
aI399
aI409
aI410
aI411
aI413
aI423
aI424
aI425
aI427
aI429
aI431
aI433
aI436
aI439
aI441
aI443
aI449
aI453
aI454
aI455
aI457
aI460
aI463
aI465
aI479
aI484
aI485
aI486
aI488
aI494
aI495
aI501
aI502
aI506
aI511
aI516
aI517
aI519
aI523
aI524
aI525
aI527
aI532
aI533
aI536
aI540
aI541
aI542
aI548
aI549
aI573
aI577
aI578
aI579
aI581
aI585
aI586
aI587
aI589
aI593
aI594
aI595
aI601
aI602
aI607
aI608
aI610
aI611
aI614
aI623
aI627
aI628
aI629
aI631
aI636
aI637
aI643
aI644
aI651
aI656
aI657
aI658
aI660
aI666
aI667
aI669
aI675
aI676
aI681
aI682
aI683
aI687
aI689
aI695
aI699
aI700
aI706
aI707
aI708
aI715
aI719
aI720
aI721
aI722
aI723
aI725
aI731
aI732
aI733
aI735
aI742
aI743
aI745
aI752
aI753
aI758
aI759
aI760
aI764
aI766
aI768
aI778
aI779
aI780
aI787
aI794
aI796
aI801
aI802
aI803
aI805
aI811
aI812
aI818
aI819
aI825
aI827
aI832
aI839
aI841
aI846
aI847
aI848
aI850
aI856
aI857
aI862
aI863
aI881
aI886
aI887
aI888
aI890
aI897
aI903
aI904
aI910
aI912
aI915
aI917
aI918
aI920
aI930
aI931
aI932
aI934
aI936
aI946
aI947
aI948
aI950
aI955
aI962
aI966
aI967
aI974
aI975
aI977
aI990
aI994
aI995
aI996
aI998
aI1003
aI1004
aI1006
aI1011
aI1012
aI1018
aI1019
aI1023
aI1033
aI1034
aI1035
aI1037
aI1039
aI1046
aI1050
aI1051
aI1053
aI1060
aI1064
aI1065
aI1071
aI1072
aI1076
aI1078
aI1091
aI1095
aI1096
aI1097
aI1100
aI1104
aI1105
aI1106
aI1108
aI1112
aI1113
aI1114
aI1120
aI1121
aI1125
aI1127
aI1128
aI1139
aI1140
aI1144
aI1146
aI1147
aI1151
aI1157
aI1158
aI1159
aI1172
aI1176
aI1177
aI1178
aI1181
aI1185
aI1186
aI1187
aI1192
aI1193
aI1194
aI1212
aI1219
aI1221
aI1225
aI1226
aI1227
aI1228
aI1230
aI1234
aI1235
aI1236
aI1237
aI1239
aI1245
aI1246
aI1248
aI1253
aI1254
aI1255
aI1257
aI1261
aI1262
aI1263
aI1264
aI1266
aI1272
aI1273
aI1275
aI1281
aI1282
aI1287
aI1288
aI1289
aI1295
aI1302
aI1306
aI1307
aI1308
aI1310
aI1324
aI1328
aI1329
aI1330
aI1332
aI1336
aI1337
aI1338
aI1340
aI1344
aI1345
aI1346
aI1348
aI1352
aI1353
aI1354
aI1360
aI1361
aI1365
aI1375
aI1376
aI1377
aI1379
aI1381
aI1395
aI1400
aI1401
aI1402
aI1404
aI1409
aI1410
aI1411
aI1413
aI1417
aI1418
aI1419
aI1420
aI1422
aI1427
aI1428
aI1429
aI1431
aI1437
aI1438
aI1444
aI1445
aI1449
aI1463
aI1468
aI1469
aI1470
aI1472
aI1478
aI1479
aI1485
aI1486
aI1490
aI1492
aI1495
aI1498
aI1503
aI1508
aI1509
aI1511
aI1516
aI1517
aI1519
aI1524
aI1525
aI1529
aI1534
aI1535
aI1537
aI1541
aI1542
aI1543
aI1547
aI1549
aI1559
aI1560
aI1561
aI1563
aI1570
aI1574
aI1575
aI1577
aI1581
aI1582
aI1583
aI1587
aI1589
aI1591
aI1594
aI1597
aI1607
aI1608
aI1609
aI1614
aI1619
aI1620
aI1621
aI1623
aI1629
aI1630
aI1632
aI1639
aI1645
aI1646
aI1650
aI1663
aI1668
aI1669
aI1675
aI1676
aI1680
aI1690
aI1691
aI1692
aI1694
aI1699
aI1704
aI1705
aI1706
aI1709
aI1714
aI1715
aI1716
aI1718
aI1722
aI1723
aI1724
aI1725
aI1727
aI1731
aI1732
aI1733
aI1734
aI1736
aI1740
aI1741
aI1742
aI1743
aI1745
aI1751
aI1752
aI1754
aI1759
aI1760
aI1761
aI1768
aI1769
aI1773
aI1786
aI1791
aI1792
aI1798
aI1799
aI1803
aI1816
aI1821
aI1822
aI1828
aI1829
aI1833
aI1846
aI1850
aI1851
aI1853
aI1857
aI1858
aI1860
aI1864
aI1865
aI1870
aI1871
aI1872
aI1884
aI1891
aI1895
aI1896
aI1898
aI1902
aI1903
aI1905
aI1915
aI1916
aI1917
aI1921
aI1923
aI1933
aI1934
aI1935
aI1937
aI1939
aI1946
aI1950
aI1951
aI1952
aI1954
aI1961
aI1965
aI1966
aI1967
aI1971
aI1973
aI1974
aI1984
aI1985
aI1986
aI1988
aI1998
aI1999
aI2000
aI2002
aI2012
aI2013
aI2014
aI2016
aI2018
aI2020
aI2021
aI2034
aI2039
aI2040
aI2046
aI2047
aI2051
aI2056
aI2061
aI2062
aI2064
aI2069
aI2070
aI2073
aI2077
aI2078
aI2079
aI2084
aI2089
aI2095
aI2097
aI2102
aI2103
aI2105
aI2110
aI2111
aI2117
aI2118
aI2122
aI2124
aI2126
aI2128
aI2138
aI2139
aI2140
aI2142
aI2144
aI2146
aI2153
aI2154
aI2155
aI2159
aI2160
aI2161
aI2163
aI2168
aI2172
aI2173
aI2181
aI2182
aI2184
aI2186
aI2188
aI2198
aI2199
aI2200
aI2202
aI2212
aI2213
aI2214
aI2216
aI2218
aI2220
aI2222
aI2224
aI2228
aI2232
aI2233
aI2241
aI2242
aI2244
aI2254
aI2255
aI2256
aI2258
aI2260
aI2265
aI2272
aI2274
aI2279
aI2280
aI2281
aI2283
aI2289
aI2290
aI2296
aI2297
aI2315
aI2320
aI2321
aI2322
aI2324
aI2330
aI2331
aI2336
aI2337
aI2338
aI2344
aI2357
aI2362
aI2363
aI2369
aI2370
aI2374
aI2376
aI2379
aI2382
aI2384
aI2397
aI2402
aI2403
aI2405
aI2410
aI2411
aI2417
aI2418
aI2422
aI2432
aI2433
aI2434
aI2436
aI2441
aI2445
aI2446
aI2448
aI2449
aI2450
aI2454
aI2455
aI2456
aI2464
aI2471
aI2475
aI2476
aI2478
aI2482
aI2483
aI2489
aI2490
aI2494
aI2501
aI2502
aI2503
aI2507
aI2508
aI2509
aI2511
aI2513
aI2517
aI2518
aI2522
aI2523
aI2530
aI2531
aI2533
aI2535
aI2539
aI2540
aI2544
aI2545
aI2552
aI2553
aI2555
aI2557
aI2559
aI2561
aI2568
aI2569
aI2573
aI2574
aI2575
aI2577
aI2579
aI2580
aI2583
aI2584
aI2586
aI2596
aI2597
aI2598
aI2600
aI2602
aI2605
aI2608
aI2613
aI2618
aI2619
aI2621
aI2627
aI2633
aI2634
aI2638
aI2640
aI2647
aI2648
aI2652
aI2653
aI2654
aI2656
aI2666
aI2667
aI2668
aI2670
aI2672
aI2679
aI2683
aI2684
aI2685
aI2687
aI2692
aI2696
aI2697
aI2705
aI2706
aI2708
aI2713
aI2717
aI2718
aI2725
aI2726
aI2727
aI2731
aI2733
aI2738
aI2743
aI2746
aI2750
aI2751
aI2757
aI2758
aI2759
aI2763
aI2768
aI2769
aI2773
aI2775
aI2776
aI2780
aI2785
aI2786
aI2787
aI2792
aI2798
aI2799
aI2801
aI2807
aI2808
aI2810
aI2816
aI2817
aI2821
aI2827
aI2828
aI2830
aI2834
aI2835
aI2836
aI2837
aI2843
aI2844
aI2848
aI2850
aI2852
aI2855
aI2857
aI2871
aI2876
aI2877
aI2878
aI2880
aI2885
aI2886
aI2887
aI2889
aI2895
aI2896
aI2902
aI2903
aI2907
aI2912
aI2916
aI2917
aI2918
aI2921
aI2925
aI2926
aI2927
aI2933
aI2934
aI2938
aI2944
aI2945
aI2946
aI2950
aI2951
aI2953
aI2957
aI2958
aI2960
aI2964
aI2965
aI2968
aI2972
aI2973
aI2975
aI2979
aI2980
aI2985
aI2986
aI2987
aI3008
aI3012
aI3013
aI3014
aI3016
aI3024
aI3029
aI3030
aI3032
aI3036
aI3037
aI3038
aI3040
aI3044
aI3045
aI3046
aI3048
aI3052
aI3053
aI3054
aI3060
aI3061
aI3065
aI3072
aI3076
aI3077
aI3078
aI3080
aI3094
aI3099
aI3100
aI3101
aI3103
aI3109
aI3110
aI3116
aI3117
aI3121
aI3155
aI3160
aI3164
aI3165
aI3168
aI3172
aI3173
aI3178
aI3179
aI3180
aI3182
aI3187
aI3191
aI3192
aI3193
aI3194
aI3196
aI3201
aI3202
aI3203
aI3205
aI3210
aI3211
aI3212
aI3217
aI3218
aI3219
aI3231
aI3232
aI3233
aI3235
aI3256
aI3260
aI3261
aI3262
aI3264
aI3268
aI3269
aI3270
aI3272
aI3277
aI3278
aI3280
aI3284
aI3285
aI3286
aI3292
aI3293
aI3297
aI3310
aI3315
aI3316
aI3322
aI3323
aI3327
aI3332
aI3333
aI3337
aI3338
aI3341
aI3345
aI3346
aI3352
aI3353
aI3367
aI3371
aI3372
aI3373
aI3374
aI3376
aI3381
aI3382
aI3383
aI3385
aI3390
aI3391
aI3392
aI3394
aI3399
aI3400
aI3401
aI3403
aI3407
aI3408
aI3409
aI3410
aI3412
aI3418
aI3419
aI3421
aI3426
aI3427
aI3428
aI3435
aI3436
aI3440
aI3442
aI3444
aI3446
aI3460
aI3465
aI3466
aI3467
aI3469
aI3474
aI3475
aI3476
aI3478
aI3484
aI3485
aI3491
aI3492
aI3496
aI3498
aI3502
aI3506
aI3507
aI3508
aI3510
aI3514
aI3515
aI3516
aI3518
aI3523
aI3524
aI3532
aI3533
aI3535
aI3537
aI3544
aI3545
aI3549
aI3550
aI3551
aI3553
aI3560
aI3561
aI3565
aI3566
aI3567
aI3569
aI3570
aI3584
aI3589
aI3590
aI3591
aI3593
aI3597
aI3598
aI3599
aI3600
aI3602
aI3606
aI3607
aI3608
aI3609
aI3611
aI3616
aI3617
aI3618
aI3620
aI3626
aI3627
aI3633
aI3634
aI3638
aI3643
aI3647
aI3648
aI3649
aI3650
aI3652
aI3657
aI3658
aI3659
aI3661
aI3668
aI3674
aI3675
aI3679
aI3690
aI3691
aI3692
aI3694
aI3705
aI3706
aI3708
aI3711
aI3713
aI3714
aI3724
aI3725
aI3726
aI3728
aI3744
aI3755
aI3756
aI3757
aI3759
aI3766
aI3770
aI3771
aI3772
aI3777
aI3781
aI3782
aI3783
aI3784
aI3786
aI3791
aI3792
aI3793
aI3795
aI3800
aI3801
aI3802
aI3804
aI3810
aI3811
aI3813
aI3819
aI3820
aI3826
aI3827
aI3831
aI3833
aI3843
aI3844
aI3845
aI3847
aI3866
aI3870
aI3871
aI3876
aI3877
aI3878
aI3882
aI3888
aI3892
aI3893
aI3899
aI3900
aI3901
aI3905
aI3907
aI3912
aI3919
aI3923
aI3924
aI3931
aI3932
aI3934
aI3936
aI3939
aI3941
aI3954
aI3958
aI3959
aI3960
aI3962
aI3966
aI3967
aI3968
aI3970
aI3974
aI3975
aI3976
aI3982
aI3983
aI3984
aI3988
aI3990
aI3994
aI3998
aI3999
aI4000
aI4002
aI4006
aI4007
aI4008
aI4010
aI4014
aI4015
aI4016
aI4018
aI4023
aI4024
aI4028
aI4029
aI4033
aI4034
aI4035
aI4041
aI4042
aI4058
aI4063
aI4064
aI4065
aI4067
aI4073
aI4074
aI4080
aI4081
aI4085
aI4087
aI4089
aI4091
aI4101
aI4102
aI4103
aI4105
aI4115
aI4116
aI4118
aI4120
aI4122
aI4124
aI4134
aI4135
aI4136
aI4138
aI4140
aI4154
aI4159
aI4160
aI4161
aI4163
aI4168
aI4169
aI4170
aI4172
aI4177
aI4178
aI4179
aI4181
aI4187
aI4188
aI4194
aI4195
aI4199
aI4206
aI4210
aI4211
aI4212
aI4214
aI4233
aI4237
aI4238
aI4244
aI4245
aI4260
aI4264
aI4265
aI4266
aI4271
aI4272
aI4273
aI4277
aI4279
aI4281
aI4286
aI4290
aI4293
aI4297
aI4299
aI4303
aI4308
aI4309
aI4310
aI4324
aI4325
aI4329
aI4330
aI4331
aI4336
aI4337
aI4338
aI4342
aI4344
aI4346
aI4348
aI4361
aI4366
aI4367
aI4373
aI4374
aI4383
aI4389
aI4391
aI4396
aI4397
aI4399
aI4404
aI4405
aI4411
aI4412
aI4418
aI4425
aI4429
aI4430
aI4431
aI4433
aI4447
aI4452
aI4453
aI4454
aI4456
aI4461
aI4462
aI4463
aI4465
aI4470
aI4471
aI4472
aI4474
aI4478
aI4479
aI4480
aI4481
aI4483
aI4488
aI4489
aI4490
aI4492
aI4498
aI4499
aI4505
aI4506
aI4510
aI4515
aI4519
aI4520
aI4521
aI4523
aI4527
aI4528
aI4529
aI4537
aI4538
aI4539
aI4543
aI4545
aI4558
aI4563
aI4564
aI4570
aI4571
aI4575
aI4577
aI4580
aI4583
aI4585
aI4587
aI4592
aI4598
aI4600
aI4605
aI4606
aI4612
aI4613
aI4630
aI4635
aI4636
aI4642
aI4643
aI4661
aI4666
aI4667
aI4668
aI4670
aI4675
aI4676
aI4677
aI4679
aI4685
aI4686
aI4688
aI4694
aI4695
aI4701
aI4702
aI4718
aI4723
aI4724
aI4725
aI4727
aI4731
aI4732
aI4733
aI4734
aI4736
aI4741
aI4742
aI4743
aI4745
aI4750
aI4751
aI4752
aI4754
aI4760
aI4761
aI4767
aI4768
aI4772
aI4774
aI4776
aI4795
aI4799
aI4800
aI4805
aI4806
aI4807
aI4816
aI4823
aI4825
aI4829
aI4830
aI4831
aI4832
aI4834
aI4839
aI4840
aI4841
aI4843
aI4849
aI4850
aI4856
aI4857
aI4863
aI4865
aI4872
aI4876
aI4877
aI4878
aI4885
aI4886
aI4890
aI4891
aI4892
aI4894
aI4895
aI4899
aI4900
aI4901
aI4906
aI4907
aI4908
aI4912
aI4922
aI4923
aI4925
aI4927
aI4932
aI4937
aI4938
aI4939
aI4941
aI4946
aI4947
aI4948
aI4950
aI4955
aI4956
aI4957
aI4959
aI4965
aI4966
aI4971
aI4972
aI4973
aI4996
aI5001
aI5002
aI5003
aI5005
aI5010
aI5011
aI5012
aI5014
aI5020
aI5021
aI5027
aI5028
aI5032
aI5034
aI5055
aI5059
aI5060
aI5061
aI5063
aI5067
aI5068
aI5069
aI5071
aI5076
aI5077
aI5079
aI5083
aI5084
aI5085
aI5091
aI5092
aI5096
aI5110
aI5114
aI5115
aI5116
aI5118
aI5123
aI5124
aI5126
aI5131
aI5132
aI5137
aI5138
aI5139
aI5140
aI5144
aI5157
aI5162
aI5163
aI5169
aI5170
aI5174
aI5181
aI5185
aI5186
aI5187
aI5197
aI5198
aI5202
aI5204
aI5208
aI5213
aI5214
aI5215
aI5217
aI5219
aI5240
aI5244
aI5245
aI5246
aI5248
aI5252
aI5253
aI5254
aI5259
aI5260
aI5261
aI5265
aI5279
aI5287
aI5291
aI5292
aI5293
aI5295
aI5299
aI5300
aI5301
aI5303
aI5308
aI5309
aI5311
aI5315
aI5316
aI5317
aI5323
aI5324
aI5340
aI5344
aI5345
aI5346
aI5348
aI5352
aI5353
aI5354
aI5356
aI5360
aI5361
aI5362
aI5364
aI5368
aI5369
aI5370
aI5372
aI5376
aI5377
aI5378
aI5380
aI5385
aI5386
aI5388
aI5393
aI5394
aI5396
aI5400
aI5401
aI5402
aI5408
aI5409
aI5413
aI5415
aI5417
aI5419
aI5421
aI5431
aI5432
aI5433
aI5435
aI5437
aI5444
aI5448
aI5449
aI5450
aI5454
aI5456
aI5458
aI5460
aI5463
aI5477
aI5482
aI5483
aI5484
aI5486
aI5492
aI5493
aI5499
aI5500
aI5516
aI5521
aI5522
aI5523
aI5525
aI5531
aI5532
aI5538
aI5539
aI5548
aI5555
aI5557
aI5562
aI5563
aI5564
aI5566
aI5571
aI5572
aI5573
aI5575
aI5581
aI5582
aI5588
aI5589
aI5595
aI5605
aI5606
aI5607
aI5609
aI5622
aI5626
aI5627
aI5628
aI5630
aI5634
aI5635
aI5636
aI5638
aI5643
aI5644
aI5651
aI5655
aI5660
aI5664
aI5665
aI5666
aI5668
aI5672
aI5673
aI5674
aI5676
aI5681
aI5682
aI5689
aI5690
aI5694
aI5707
aI5708
aI5712
aI5713
aI5715
aI5719
aI5720
aI5725
aI5726
aI5727
aI5729
aI5731
aI5736
aI5740
aI5741
aI5742
aI5744
aI5748
aI5749
aI5750
aI5755
aI5756
aI5757
aI5761
aI5767
aI5772
aI5773
aI5778
aI5783
aI5784
aI5786
aI5791
aI5792
aI5794
aI5798
aI5799
aI5800
aI5806
aI5807
aI5808
aI5824
aI5829
aI5830
aI5831
aI5833
aI5839
aI5840
aI5845
aI5846
aI5847
aI5863
aI5868
aI5869
aI5870
aI5872
aI5876
aI5877
aI5878
aI5879
aI5881
aI5882
aI5887
aI5888
aI5889
aI5891
aI5896
aI5897
aI5898
aI5900
aI5905
aI5906
aI5907
aI5909
aI5914
aI5915
aI5916
aI5918
aI5922
aI5923
aI5924
aI5925
aI5931
aI5932
aI5936
aI5943
aI5944
aI5948
aI5949
aI5954
aI5955
aI5956
aI5960
aI5962
aI5964
aI5971
aI5975
aI5976
aI5977
aI5984
aI5989
aI5992
aI5996
aI5997
aI6002
aI6003
aI6004
aI6010
aI6017
aI6018
aI6022
aI6023
aI6024
aI6026
aI6033
aI6037
aI6038
aI6039
aI6060
aI6065
aI6066
aI6068
aI6072
aI6073
aI6074
aI6076
aI6081
aI6082
aI6084
aI6088
aI6089
aI6090
aI6095
aI6096
aI6097
aI6101
aI6103
aI6109
aI6113
aI6114
aI6120
aI6121
aI6122
aI6126
aI6136
aI6137
aI6138
aI6140
aI6147
aI6151
aI6152
aI6153
aI6155
aI6162
aI6166
aI6167
aI6168
aI6173
aI6180
aI6184
aI6185
aI6192
aI6193
aI6195
aI6197
aI6203
aI6207
aI6208
aI6209
aI6211
aI6215
aI6216
aI6217
aI6220
aI6225
aI6226
aI6228
aI6233
aI6234
aI6236
aI6240
aI6241
aI6242
aI6248
aI6249
aI6253
aI6267
aI6271
aI6272
aI6273
aI6275
aI6279
aI6280
aI6281
aI6283
aI6287
aI6288
aI6289
aI6295
aI6296
aI6312
aI6316
aI6317
aI6318
aI6320
aI6325
aI6326
aI6328
aI6332
aI6333
aI6334
aI6340
aI6341
aI6345
aI6366
aI6370
aI6371
aI6372
aI6374
aI6378
aI6379
aI6380
aI6382
aI6387
aI6388
aI6390
aI6395
aI6396
aI6401
aI6402
aI6403
aI6404
aI6421
aI6425
aI6426
aI6427
aI6428
aI6430
aI6434
aI6435
aI6436
aI6437
aI6439
aI6444
aI6445
aI6446
aI6448
aI6452
aI6453
aI6454
aI6455
aI6457
aI6461
aI6462
aI6463
aI6464
aI6466
aI6472
aI6473
aI6475
aI6481
aI6482
aI6484
aI6490
aI6491
aI6493
aI6497
aI6498
aI6499
aI6500
aI6507
aI6508
aI6512
aI6514
aI6535
aI6539
aI6540
aI6541
aI6543
aI6547
aI6548
aI6549
aI6554
aI6555
aI6556
aI6560
aI6562
aI6563
aI6568
aI6572
aI6573
aI6574
aI6576
aI6582
aI6587
aI6588
aI6589
aI6593
aI6604
aI6605
aI6618
aI6619
aI6623
aI6625
aI6631
aI6635
aI6636
aI6639
aI6643
aI6644
aI6649
aI6650
aI6651
aI6667
aI6672
aI6673
aI6674
aI6676
aI6681
aI6682
aI6683
aI6685
aI6691
aI6692
aI6698
aI6699
aI6703
aI6705
aI6707
aI6714
aI6718
aI6720
aI6724
aI6725
aI6726
aI6730
aI6732
aI6737
aI6742
aI6744
aI6748
aI6749
aI6756
aI6757
aI6774
aI6778
aI6779
aI6780
aI6785
aI6786
aI6787
aI6793
aI6795
aI6802
aI6806
aI6807
aI6808
aI6810
aI6811
aI6813
aI6820
aI6824
aI6825
aI6826
aI6828
aI6835
aI6839
aI6840
aI6841
aI6843
aI6845
aI6852
aI6856
aI6857
aI6859
aI6863
aI6864
aI6869
aI6870
aI6871
aI6887
aI6892
aI6893
aI6894
aI6896
aI6900
aI6901
aI6902
aI6903
aI6905
aI6909
aI6910
aI6911
aI6912
aI6914
aI6918
aI6919
aI6920
aI6921
aI6924
aI6928
aI6929
aI6930
aI6931
aI6933
aI6939
aI6940
aI6945
aI6946
aI6947
aI6951
aI6953
aI6954
aI6955
aI6968
aI6972
aI6973
aI6978
aI6979
aI6980
aI6984
aI6986
aI6996
aI6997
aI6998
aI7000
aI7010
aI7011
aI7012
aI7014
aI7016
aI7017
aI7019
aI7021
aI7023
aI7026
aI7027
aI7037
aI7038
aI7039
aI7041
aI7051
aI7052
aI7053
aI7055
aI7068
aI7072
aI7073
aI7074
aI7076
aI7081
aI7082
aI7084
aI7089
aI7090
aI7096
aI7097
aI7101
aI7103
aI7105
aI7115
aI7116
aI7117
aI7125
aI7130
aI7132
aI7136
aI7137
aI7142
aI7143
aI7144
aI7150
aI7162
aI7166
aI7167
aI7173
aI7174
aI7175
aI7179
aI7181
aI7191
aI7192
aI7193
aI7195
aI7205
aI7206
aI7207
aI7209
aI7214
aI7218
aI7219
aI7224
aI7228
aI7229
aI7231
aI7235
aI7236
aI7237
aI7242
aI7247
aI7248
aI7249
aI7251
aI7257
aI7258
aI7260
aI7266
aI7267
aI7273
aI7274
aI7278
aI7288
aI7289
aI7290
aI7292
aI7299
aI7303
aI7304
aI7306
aI7310
aI7311
aI7316
aI7317
aI7318
aI7334
aI7339
aI7340
aI7341
aI7343
aI7348
aI7349
aI7350
aI7352
aI7357
aI7358
aI7359
aI7361
aI7367
aI7368
aI7374
aI7375
aI7379
aI7381
aI7383
aI7385
aI7387
aI7397
aI7398
aI7399
aI7401
aI7403
aI7408
aI7413
aI7414
aI7416
aI7422
aI7428
aI7429
aI7433
aI7436
aI7439
aI7441
aI7453
aI7460
aI7464
aI7465
aI7467
aI7471
aI7472
aI7478
aI7479
aI7480
aI7485
aI7489
aI7490
aI7491
aI7492
aI7494
aI7499
aI7500
aI7501
aI7503
aI7508
aI7509
aI7510
aI7513
aI7518
aI7519
aI7520
aI7525
aI7526
aI7527
aI7532
aI7539
aI7543
aI7544
aI7545
aI7547
aI7557
aI7558
aI7559
aI7561
aI7568
aI7575
aI7579
aI7580
aI7582
aI7586
aI7587
aI7589
aI7593
aI7594
aI7596
aI7603
aI7607
aI7608
aI7613
aI7614
aI7615
aI7617
aI7630
aI7634
aI7635
aI7637
aI7641
aI7642
aI7647
aI7648
aI7649
aI7653
aI7663
aI7664
aI7665
aI7667
aI7681
aI7685
aI7686
aI7687
aI7689
aI7693
aI7694
aI7695
aI7697
aI7701
aI7702
aI7703
aI7709
aI7710
aI7735
aI7739
aI7740
aI7741
aI7742
aI7744
aI7748
aI7749
aI7750
aI7751
aI7753
aI7759
aI7760
aI7762
aI7768
aI7769
aI7771
aI7775
aI7776
aI7777
aI7778
aI7785
aI7786
aI7791
aI7793
aI7794
aI7804
aI7805
aI7806
aI7808
aI7818
aI7819
aI7820
aI7822
aI7824
aI7826
aI7833
aI7834
aI7838
aI7839
aI7845
aI7854
aI7859
aI7860
aI7861
aI7863
aI7867
aI7868
aI7869
aI7870
aI7872
aI7878
aI7879
aI7885
aI7886
aI7891
aI7893
aI7895
aI7908
aI7913
aI7914
aI7920
aI7921
aI7925
aI7938
aI7943
aI7944
aI7950
aI7951
aI7955
aI7962
aI7966
aI7967
aI7968
aI7970
aI7972
aI7974
aI7979
aI7983
aI7984
aI7985
aI7988
aI7992
aI7993
aI7994
aI8001
aI8002
aI8006
aI8011
aI8015
aI8016
aI8023
aI8024
aI8025
aI8029
aI8031
aI8038
aI8039
aI8043
aI8044
aI8046
aI8050
aI8051
aI8052
aI8073
aI8077
aI8078
aI8079
aI8080
aI8082
aI8089
aI8091
aI8095
aI8096
aI8097
aI8098
aI8100
aI8104
aI8105
aI8106
aI8107
aI8109
aI8113
aI8114
aI8115
aI8116
aI8118
aI8124
aI8125
aI8127
aI8133
aI8134
aI8136
aI8142
aI8143
aI8148
aI8149
aI8150
aI8154
aI8156
aI8170
aI8174
aI8175
aI8176
aI8178
aI8182
aI8183
aI8184
aI8189
aI8190
aI8191
aI8195
aI8208
aI8215
aI8219
aI8220
aI8222
aI8226
aI8227
aI8232
aI8233
aI8234
aI8235
aI8249
aI8254
aI8255
aI8256
aI8258
aI8264
aI8265
aI8271
aI8272
aI8276
aI8278
aI8280
aI8282
aI8285
aI8288
aI8294
aI8298
aI8299
aI8300
aI8302
aI8312
aI8313
aI8314
aI8316
aI8321
aI8325
aI8326
aI8328
aI8332
aI8333
aI8340
aI8341
aI8342
aI8346
aI8359
aI8363
aI8364
aI8366
aI8370
aI8371
aI8376
aI8377
aI8378
aI8382
aI8387
aI8391
aI8392
aI8394
aI8398
aI8399
aI8404
aI8408
aI8409
aI8411
aI8412
aI8416
aI8417
aI8418
aI8421
aI8426
aI8430
aI8434
aI8443
aI8444
aI8445
aI8449
aI8462
aI8469
aI8473
aI8474
aI8476
aI8480
aI8481
aI8486
aI8487
aI8488
aI8494
aI8498
aI8499
aI8500
aI8501
aI8503
aI8508
aI8509
aI8510
aI8512
aI8517
aI8518
aI8519
aI8522
aI8528
aI8529
aI8531
aI8535
aI8536
aI8537
aI8538
aI8545
aI8546
aI8551
aI8553
aI8555
aI8557
aI8560
aI8563
aI8565
aI8568
aI8570
aI8573
aI8576
aI8579
aI8582
aI8584
aI8587
aI8588
aI8593
aI8594
aI8598
aI8599
aI8600
aI8602
aI8604
aI8606
aI8607
aI8617
aI8618
aI8619
aI8621
aI8628
aI8632
aI8633
aI8634
aI8636
aI8646
aI8647
aI8648
aI8650
aI8654
aI8658
aI8659
aI8664
aI8668
aI8669
aI8674
aI8675
aI8676
aI8678
aI8680
aI8682
aI8685
aI8687
aI8688
aI8691
aI8694
aI8696
aI8697
aI8699
aI8701
aI8711
aI8712
aI8713
aI8715
aI8717
aI8727
aI8728
aI8729
aI8731
aI8733
aI8736
aI8737
aI8739
aI8741
aI8751
aI8752
aI8753
aI8755
aI8765
aI8766
aI8767
aI8774
aI8775
aI8776
aI8780
aI8781
aI8782
aI8784
aI8786
aI8793
aI8797
aI8798
aI8799
aI8801
aI8803
aI8808
aI8809
aI8810
aI8814
aI8815
aI8816
aI8820
aI8821
aI8824
aI8827
aI8831
aI8832
aI8842
aI8843
aI8844
aI8846
aI8853
aI8857
aI8858
aI8859
aI8861
aI8863
aI8866
aI8869
aI8876
aI8880
aI8881
aI8882
aI8884
aI8894
aI8895
aI8896
aI8898
aI8900
aI8901
aI8903
aI8913
aI8914
aI8915
aI8917
aI8922
aI8928
aI8932
aI8933
aI8934
aI8936
aI8939
aI8941
aI8943
aI8944
aI8945
aI8951
aI8955
aI8956
aI8957
aI8959
aI8962
aI8965
aI8967
aI8969
aI8974
aI8978
aI8979
aI8986
aI8987
aI8988
aI8992
aI8995
aI8998
aI9000
aI9020
aI9024
aI9025
aI9026
aI9027
aI9029
aI9034
aI9035
aI9036
aI9038
aI9044
aI9045
aI9051
aI9052
aI9056
aI9070
aI9075
aI9076
aI9077
aI9079
aI9085
aI9086
aI9092
aI9093
aI9097
aI9099
aI9102
aI9105
aI9108
aI9120
aI9125
aI9128
aI9132
aI9133
aI9135
aI9139
aI9140
aI9145
aI9146
aI9147
aI9151
aI9153
aI9155
aI9161
aI9168
aI9172
aI9173
aI9179
aI9180
aI9182
aI9184
aI9185
aI9195
aI9196
aI9197
aI9199
aI9209
aI9210
aI9211
aI9213
aI9215
aI9217
aI9222
aI9226
aI9230
aI9231
aI9235
aI9236
aI9237
aI9241
aI9243
aI9245
aI9247
aI9250
aI9252
aI9253
aI9254
aI9255
aI9263
aI9268
aI9269
aI9273
aI9274
aI9275
aI9277
aI9279
aI9281
aI9283
aI9285
aI9287
aI9297
aI9298
aI9299
aI9301
aI9308
aI9312
aI9313
aI9314
aI9316
aI9322
aI9323
aI9327
aI9328
aI9331
aI9335
aI9336
aI9341
aI9342
aI9343
aI9345
aI9347
aI9349
aI9356
aI9360
aI9361
aI9362
aI9369
aI9374
aI9376
aI9380
aI9381
aI9383
aI9387
aI9388
aI9394
aI9395
aI9396
aI9414
aI9418
aI9419
aI9420
aI9422
aI9426
aI9427
aI9428
aI9430
aI9435
aI9436
aI9438
aI9442
aI9443
aI9444
aI9449
aI9450
aI9451
aI9455
aI9460
aI9466
aI9470
aI9477
aI9478
aI9479
aI9481
aI9494
aI9498
aI9499
aI9501
aI9505
aI9506
aI9508
aI9512
aI9513
aI9518
aI9519
aI9520
aI9524
aI9530
aI9531
aI9535
aI9536
aI9537
aI9539
aI9543
aI9544
aI9545
aI9549
aI9559
aI9560
aI9561
aI9563
aI9565
aI9575
aI9576
aI9577
aI9579
aI9585
aI9590
aI9592
aI9596
aI9597
aI9602
aI9603
aI9604
aI9621
aI9625
aI9626
aI9631
aI9632
aI9633
aI9639
aI9641
aI9644
aI9646
aI9648
aI9658
aI9659
aI9660
aI9662
aI9672
aI9673
aI9674
aI9676
aI9691
aI9700
aI9705
aI9706
aI9707
aI9709
aI9713
aI9714
aI9715
aI9716
aI9718
aI9722
aI9723
aI9724
aI9725
aI9727
aI9732
aI9733
aI9734
aI9736
aI9742
aI9743
aI9745
aI9751
aI9752
aI9757
aI9758
aI9759
aI9763
aI9773
aI9774
aI9775
aI9777
aI9779
aI9781
aI9791
aI9792
aI9793
aI9795
aI9797
aI9798
aI9808
aI9809
aI9810
aI9812
aI9822
aI9823
aI9824
aI9826
aI9828
aI9830
aI9835
aI9841
aI9843
aI9847
aI9848
aI9849
aI9854
aI9855
aI9856
aI9872
aI9876
aI9877
aI9884
aI9885
aI9891
aI9901
aI9902
aI9903
aI9905
aI9906
aI9908
aI9909
aI9912
aI9915
aI9921
aI9927
aI9931
aI9933
aI9937
aI9943
aI9944
aI9946
aI9948
aI9962
aI9971
aI9975
aI9976
aI9977
aI9978
aI9980
aI9984
aI9985
aI9986
aI9987
aI9989
aI9993
aI9994
aI9995
aI9996
aI9998
aI10004
aI10005
aI10011
aI10012
aI10017
aI10023
aI10027
aI10028
aI10030
aI10034
aI10035
aI10040
aI10041
aI10042
aI10063
aI10067
aI10068
aI10069
aI10071
aI10075
aI10076
aI10077
aI10079
aI10083
aI10084
aI10085
aI10091
aI10092
aI10096
aI10098
aI10104
aI10108
aI10109
aI10110
aI10112
aI10115
aI10118
aI10120
aI10125
aI10131
aI10135
aI10142
aI10143
aI10144
aI10146
aI10153
aI10157
aI10158
aI10159
aI10161
aI10175
aI10179
aI10180
aI10181
aI10182
aI10184
aI10189
aI10190
aI10191
aI10193
aI10199
aI10200
aI10206
aI10207
aI10224
aI10228
aI10229
aI10230
aI10231
aI10233
aI10237
aI10238
aI10239
aI10240
aI10242
aI10247
aI10248
aI10249
aI10251
aI10256
aI10257
aI10258
aI10260
aI10264
aI10265
aI10266
aI10267
aI10269
aI10274
aI10275
aI10276
aI10278
aI10282
aI10283
aI10284
aI10285
aI10287
aI10293
aI10294
aI10299
aI10300
aI10301
aI10305
aI10307
aI10308
aI10318
aI10319
aI10320
aI10322
aI10332
aI10333
aI10334
aI10336
aI10338
aI10340
aI10350
aI10351
aI10352
aI10354
aI10364
aI10365
aI10366
aI10368
aI10369
aI10371
aI10374
aI10377
aI10379
aI10381
aI10382
aI10385
aI10388
aI10393
aI10397
aI10398
aI10400
aI10404
aI10405
aI10409
aI10413
aI10414
aI10417
aI10421
aI10422
aI10423
aI10425
aI10427
aI10429
aI10436
aI10437
aI10441
aI10442
aI10443
aI10445
aI10447
aI10457
aI10458
aI10459
aI10466
aI10472
aI10474
aI10479
aI10480
aI10486
aI10487
aI10493
aI10495
aI10497
aI10499
aI10501
aI10511
aI10512
aI10513
aI10515
aI10525
aI10526
aI10527
aI10529
aI10531
aI10533
aI10537
aI10543
aI10547
aI10554
aI10555
aI10556
aI10558
aI10560
aI10561
aI10573
aI10578
aI10580
aI10584
aI10585
aI10591
aI10592
aI10593
aI10603
aI10607
aI10608
aI10610
aI10614
aI10615
aI10620
aI10621
aI10622
aI10628
aI10630
aI10642
aI10646
aI10647
aI10649
aI10653
aI10654
aI10656
aI10663
aI10667
aI10668
aI10670
aI10674
aI10675
aI10678
aI10682
aI10683
aI10688
aI10689
aI10690
aI10697
aI10701
aI10702
aI10704
aI10708
aI10709
aI10713
aI10720
aI10724
aI10725
aI10730
aI10731
aI10732
aI10764
aI10775
aI10776
aI10777
aI10782
aI10787
aI10788
aI10789
aI10791
aI10795
aI10796
aI10797
aI10798
aI10800
aI10804
aI10805
aI10806
aI10807
aI10809
aI10813
aI10814
aI10815
aI10816
aI10818
aI10822
aI10823
aI10824
aI10825
aI10827
aI10833
aI10834
aI10836
aI10841
aI10842
aI10843
aI10845
aI10850
aI10851
aI10852
aI10854
aI10860
aI10861
aI10863
aI10869
aI10870
aI10875
aI10876
aI10877
aI10881
aI10888
aI10892
aI10893
aI10894
aI10896
aI10898
aI10912
aI10916
aI10917
aI10918
aI10920
aI10924
aI10925
aI10926
aI10928
aI10932
aI10933
aI10934
aI10940
aI10941
aI10945
aI10947
aI10949
aI10952
aI10955
aI10961
aI10965
aI10966
aI10967
aI10973
aI10977
aI10978
aI10979
aI10981
aI10986
aI10987
aI10989
aI10995
aI11001
aI11002
aI11006
aI11011
aI11015
aI11016
aI11020
aI11024
aI11025
aI11030
aI11031
aI11032
aI11036
aI11038
aI11041
aI11044
aI11050
aI11054
aI11055
aI11056
aI11058
aI11061
aI11064
aI11079
aI11083
aI11084
aI11085
aI11086
aI11088
aI11093
aI11094
aI11095
aI11097
aI11102
aI11103
aI11104
aI11106
aI11110
aI11111
aI11112
aI11113
aI11115
aI11121
aI11122
aI11127
aI11128
aI11129
aI11133
aI11135
aI11145
aI11146
aI11147
aI11149
aI11151
aI11154
aI11156
aI11161
aI11165
aI11166
aI11167
aI11170
aI11174
aI11175
aI11176
aI11178
aI11182
aI11183
aI11184
aI11186
aI11190
aI11191
aI11192
aI11195
aI11199
aI11200
aI11201
aI11207
aI11208
aI11212
aI11226
aI11231
aI11232
aI11233
aI11235
aI11240
aI11241
aI11242
aI11244
aI11249
aI11250
aI11251
aI11253
aI11259
aI11260
aI11266
aI11267
aI11271
aI11283
aI11284
aI11285
aI11289
aI11294
aI11295
aI11296
aI11298
aI11300
aI11302
aI11312
aI11313
aI11314
aI11316
aI11326
aI11327
aI11328
aI11330
aI11332
aI11342
aI11343
aI11344
aI11346
aI11348
aI11350
aI11352
aI11356
aI11357
aI11361
aI11369
aI11370
aI11372
aI11379
aI11383
aI11384
aI11385
aI11387
aI11388
aI11393
aI11399
aI11401
aI11406
aI11407
aI11409
aI11414
aI11415
aI11421
aI11422
aI11439
aI11444
aI11445
aI11447
aI11452
aI11453
aI11459
aI11460
aI11466
aI11468
aI11475
aI11479
aI11480
aI11481
aI11483
aI11485
aI11488
aI11494
aI11495
aI11499
aI11505
aI11506
aI11507
aI11509
aI11511
aI11513
aI11515
aI11517
aI11527
aI11528
aI11529
aI11531
aI11541
aI11542
aI11543
aI11545
aI11547
aI11557
aI11558
aI11559
aI11561
aI11563
aI11570
aI11574
aI11575
aI11576
aI11578
aI11580
aI11582
aI11584
aI11594
aI11595
aI11596
aI11598
aI11600
aI11602
aI11603
aI11606
aI11609
aI11616
aI11622
aI11624
aI11629
aI11630
aI11632
aI11637
aI11638
aI11644
aI11645
aI11651
aI11672
aI11676
aI11677
aI11678
aI11680
aI11685
aI11686
aI11688
aI11692
aI11693
aI11694
aI11700
aI11701
aI11708
aI11712
aI11713
aI11714
aI11715
aI11717
aI11721
aI11722
aI11723
aI11724
aI11726
aI11730
aI11731
aI11732
aI11733
aI11735
aI11740
aI11741
aI11742
aI11746
aI11747
aI11753
aI11754
aI11759
aI11760
aI11761
aI11765
aI11775
aI11776
aI11777
aI11779
aI11785
aI11786
aI11790
aI11791
aI11792
aI11794
aI11798
aI11799
aI11800
aI11802
aI11807
aI11808
aI11814
aI11815
aI11819
aI11834
aI11838
aI11839
aI11840
aI11841
aI11843
aI11848
aI11849
aI11850
aI11856
aI11857
aI11864
aI11868
aI11869
aI11870
aI11872
aI11876
aI11877
aI11878
aI11880
aI11884
aI11885
aI11886
aI11890
aI11891
aI11892
aI11896
aI11897
aI11898
aI11904
aI11905
aI11909
aI11914
aI11915
aI11916
aI11920
aI11927
aI11928
aI11929
aI11931
aI11933
aI11940
aI11944
aI11945
aI11946
aI11952
aI11956
aI11957
aI11958
aI11960
aI11964
aI11965
aI11966
aI11969
aI11973
aI11974
aI11975
aI11977
aI11981
aI11982
aI11983
aI11985
aI11990
aI11991
aI11993
aI11998
aI11999
aI12001
aI12005
aI12006
aI12007
aI12013
aI12014
aI12018
aI12025
aI12029
aI12030
aI12032
aI12036
aI12037
aI12038
aI12042
aI12055
aI12060
aI12061
aI12067
aI12068
aI12072
aI12078
aI12086
aI12090
aI12091
aI12092
aI12094
aI12099
aI12100
aI12102
aI12106
aI12107
aI12108
aI12110
aI12115
aI12116
aI12118
aI12123
aI12124
aI12130
aI12131
aI12135
aI12141
aI12142
aI12146
aI12147
aI12153
aI12154
aI12156
aI12169
aI12177
aI12181
aI12182
aI12183
aI12185
aI12189
aI12190
aI12191
aI12193
aI12197
aI12198
aI12199
aI12201
aI12205
aI12206
aI12207
aI12209
aI12213
aI12214
aI12215
aI12221
aI12222
aI12236
aI12240
aI12241
aI12242
aI12243
aI12245
aI12249
aI12250
aI12251
aI12252
aI12254
aI12260
aI12261
aI12267
aI12268
aI12272
aI12278
aI12282
aI12283
aI12285
aI12289
aI12290
aI12296
aI12297
aI12298
aI12302
aI12304
aI12306
aI12308
aI12314
aI12321
aI12325
aI12326
aI12332
aI12333
aI12335
aI12338
aI12340
aI12342
aI12352
aI12353
aI12354
aI12361
aI12366
aI12369
aI12373
aI12374
aI12379
aI12380
aI12381
aI12387
aI12389
aI12394
aI12399
aI12400
aI12402
aI12407
aI12408
aI12413
aI12414
aI12415
aI12422
aI12433
aI12434
aI12436
aI12437
aI12439
aI12441
aI12443
aI12449
aI12453
aI12454
aI12460
aI12461
aI12462
aI12466
aI12480
aI12485
aI12486
aI12487
aI12489
aI12495
aI12496
aI12502
aI12503
aI12519
aI12524
aI12525
aI12526
aI12528
aI12534
aI12535
aI12541
aI12542
aI12546
aI12565
aI12569
aI12570
aI12575
aI12576
aI12577
aI12581
aI12594
aI12598
aI12599
aI12604
aI12605
aI12606
aI12610
aI12612
aI12622
aI12623
aI12624
aI12626
aI12639
aI12644
aI12645
aI12651
aI12652
aI12661
aI12668
aI12670
aI12675
aI12676
aI12677
aI12679
aI12685
aI12686
aI12692
aI12693
aI12699
aI12712
aI12716
aI12717
aI12719
aI12723
aI12724
aI12729
aI12730
aI12731
aI12735
aI12749
aI12753
aI12754
aI12755
aI12756
aI12758
aI12763
aI12764
aI12765
aI12767
aI12773
aI12774
aI12780
aI12781
aI12797
aI12801
aI12802
aI12803
aI12804
aI12806
aI12812
aI12813
aI12815
aI12821
aI12822
aI12824
aI12830
aI12831
aI12833
aI12839
aI12840
aI12842
aI12848
aI12849
aI12854
aI12855
aI12856
aI12860
aI12862
aI12883
aI12887
aI12888
aI12889
aI12891
aI12896
aI12897
aI12899
aI12904
aI12905
aI12907
aI12912
aI12913
aI12915
aI12919
aI12920
aI12921
aI12926
aI12927
aI12928
aI12932
aI12934
aI12941
aI12945
aI12946
aI12947
aI12949
aI12953
aI12954
aI12955
aI12960
aI12961
aI12962
aI12978
aI12982
aI12983
aI12984
aI12986
aI12990
aI12991
aI12992
aI12994
aI12998
aI12999
aI13000
aI13002
aI13006
aI13007
aI13008
aI13014
aI13015
aI13019
aI13032
aI13036
aI13037
aI13038
aI13040
aI13048
aI13052
aI13053
aI13054
aI13056
aI13060
aI13061
aI13062
aI13064
aI13068
aI13069
aI13070
aI13076
aI13077
aI13081
aI13086
aI13091
aI13092
aI13093
aI13095
aI13100
aI13101
aI13102
aI13104
aI13110
aI13111
aI13113
aI13117
aI13118
aI13119
aI13120
aI13122
aI13128
aI13129
aI13131
aI13137
aI13138
aI13145
aI13146
aI13171
aI13175
aI13176
aI13177
aI13178
aI13180
aI13185
aI13186
aI13187
aI13189
aI13193
aI13194
aI13195
aI13196
aI13198
aI13203
aI13204
aI13205
aI13207
aI13211
aI13212
aI13213
aI13214
aI13216
aI13222
aI13223
aI13228
aI13229
aI13230
aI13234
aI13241
aI13245
aI13246
aI13251
aI13252
aI13253
aI13257
aI13259
aI13272
aI13277
aI13278
aI13284
aI13285
aI13289
aI13296
aI13300
aI13301
aI13302
aI13306
aI13316
aI13317
aI13318
aI13320
aI13330
aI13331
aI13332
aI13334
aI13337
aI13339
aI13341
aI13346
aI13352
aI13354
aI13358
aI13359
aI13360
aI13362
aI13366
aI13367
aI13368
aI13373
aI13374
aI13375
aI13393
aI13398
aI13399
aI13401
aI13406
aI13407
aI13413
aI13414
aI13420
aI13433
aI13437
aI13438
aI13439
aI13441
aI13445
aI13446
aI13447
aI13449
aI13453
aI13454
aI13455
aI13458
aI13463
aI13464
aI13466
aI13471
aI13472
aI13474
aI13479
aI13480
aI13482
aI13486
aI13487
aI13488
aI13494
aI13495
aI13499
aI13501
aI13511
aI13512
aI13513
aI13515
aI13520
aI13527
aI13531
aI13532
aI13534
aI13538
aI13539
aI13546
aI13547
aI13549
aI13568
aI13572
aI13573
aI13575
aI13579
aI13580
aI13585
aI13586
aI13587
aI13591
aI13598
aI13602
aI13603
aI13604
aI13608
aI13622
aI13627
aI13628
aI13629
aI13631
aI13637
aI13638
aI13644
aI13645
aI13652
aI13656
aI13657
aI13658
aI13661
aI13666
aI13667
aI13669
aI13674
aI13675
aI13678
aI13683
aI13684
aI13686
aI13690
aI13691
aI13692
aI13698
aI13699
aI13703
aI13718
aI13722
aI13723
aI13724
aI13725
aI13727
aI13732
aI13733
aI13734
aI13736
aI13742
aI13743
aI13749
aI13750
aI13754
aI13756
aI13761
aI13767
aI13769
aI13773
aI13774
aI13775
aI13781
aI13782
aI13786
aI13791
aI13794
aI13796
aI13809
aI13813
aI13814
aI13815
aI13817
aI13821
aI13822
aI13823
aI13825
aI13829
aI13830
aI13831
aI13833
aI13838
aI13839
aI13842
aI13846
aI13847
aI13848
aI13854
aI13855
aI13860
aI13862
aI13872
aI13873
aI13874
aI13876
aI13878
aI13888
aI13889
aI13890
aI13892
aI13899
aI13903
aI13904
aI13905
aI13907
aI13909
aI13916
aI13920
aI13921
aI13922
aI13924
aI13934
aI13935
aI13936
aI13938
aI13940
aI13950
aI13951
aI13952
aI13954
aI13956
aI13966
aI13967
aI13968
aI13970
aI13972
aI13974
aI13980
aI13984
aI13985
aI13987
aI13994
aI13998
aI13999
aI14005
aI14006
aI14010
aI14012
aI14014
aI14024
aI14025
aI14027
aI14028
aI14029
aI14042
aI14047
aI14048
aI14054
aI14055
aI14059
aI14061
aI14071
aI14072
aI14073
aI14075
aI14077
aI14079
aI14081
aI14093
aI14097
aI14098
aI14104
aI14105
aI14106
aI14110
aI14117
aI14121
aI14122
aI14123
aI14125
aI14137
aI14141
aI14142
aI14148
aI14149
aI14150
aI14154
aI14164
aI14165
aI14166
aI14168
aI14170
aI14171
aI14178
aI14182
aI14183
aI14184
aI14188
aI14198
aI14199
aI14200
aI14202
aI14204
aI14205
aI14206
aI14208
aI14210
aI14217
aI14221
aI14222
aI14223
aI14227
aI14229
aI14231
aI14233
aI14235
aI14237
aI14247
aI14248
aI14249
aI14251
aI14253
aI14258
aI14263
aI14264
aI14265
aI14267
aI14273
aI14274
aI14276
aI14282
aI14283
aI14289
aI14290
aI14294
aI14296
aI14298
aI14308
aI14309
aI14310
aI14312
aI14322
aI14323
aI14324
aI14326
aI14328
aI14340
aI14346
aI14350
aI14355
aI14356
aI14357
aI14359
aI14364
aI14365
aI14369
aI14370
aI14377
aI14378
aI14385
aI14389
aI14390
aI14392
aI14396
aI14397
aI14399
aI14409
aI14410
aI14411
aI14415
aI14422
aI14426
aI14427
aI14428
aI14430
aI14432
aI14434
aI14440
aI14444
aI14445
aI14446
aI14448
aI14458
aI14459
aI14460
aI14462
aI14473
aI14474
aI14487
aI14488
aI14495
aI14500
aI14501
aI14502
aI14504
aI14509
aI14510
aI14511
aI14513
aI14518
aI14519
aI14520
aI14522
aI14529
aI14534
aI14535
aI14536
aI14540
aI14542
aI14548
aI14552
aI14553
aI14554
aI14556
aI14559
aI14562
aI14564
aI14572
aI14576
aI14581
aI14582
aI14583
aI14587
aI14601
aI14605
aI14606
aI14607
aI14608
aI14610
aI14615
aI14616
aI14617
aI14619
aI14625
aI14626
aI14632
aI14633
aI14649
aI14653
aI14654
aI14655
aI14656
aI14658
aI14663
aI14664
aI14665
aI14667
aI14672
aI14673
aI14674
aI14676
aI14681
aI14682
aI14683
aI14685
aI14690
aI14691
aI14692
aI14694
aI14699
aI14700
aI14701
aI14703
aI14708
aI14709
aI14710
aI14712
aI14718
aI14719
aI14725
aI14726
aI14730
aI14732
aI14737
aI14741
aI14742
aI14745
aI14752
aI14756
aI14757
aI14763
aI14764
aI14773
aI14780
aI14782
aI14787
aI14788
aI14789
aI14791
aI14796
aI14797
aI14798
aI14800
aI14805
aI14806
aI14807
aI14809
aI14814
aI14815
aI14816
aI14818
aI14823
aI14824
aI14825
aI14827
aI14832
aI14833
aI14834
aI14836
aI14842
aI14843
aI14845
aI14851
aI14852
aI14858
aI14859
aI14865
aI14867
aI14874
aI14878
aI14879
aI14880
aI14882
aI14884
aI14894
aI14895
aI14896
aI14898
aI14904
aI14908
aI14909
aI14910
aI14912
aI14913
aI14916
aI14930
aI14935
aI14936
aI14937
aI14939
aI14943
aI14944
aI14945
aI14946
aI14948
aI14953
aI14954
aI14955
aI14957
aI14962
aI14963
aI14964
aI14966
aI14972
aI14973
aI14979
aI14980
aI14984
aI14997
aI15002
aI15003
aI15009
aI15010
aI15014
aI15016
aI15028
aI15032
aI15033
aI15035
aI15039
aI15040
aI15042
aI15046
aI15047
aI15050
aI15054
aI15055
aI15060
aI15061
aI15062
aI15066
aI15071
aI15075
aI15076
aI15077
aI15079
aI15083
aI15084
aI15085
aI15088
aI15092
aI15093
aI15094
aI15096
aI15100
aI15101
aI15102
aI15104
aI15108
aI15109
aI15110
aI15113
aI15117
aI15118
aI15119
aI15125
aI15126
aI15130
aI15132
aI15133
aI15136
aI15138
aI15140
aI15152
aI15156
aI15157
aI15159
aI15160
aI15167
aI15171
aI15172
aI15178
aI15179
aI15183
aI15185
aI15195
aI15196
aI15197
aI15199
aI15209
aI15210
aI15211
aI15213
aI15215
aI15217
aI15219
aI15233
aI15238
aI15239
aI15240
aI15242
aI15248
aI15249
aI15255
aI15256
aI15260
aI15267
aI15271
aI15272
aI15273
aI15275
aI15279
aI15280
aI15281
aI15286
aI15287
aI15288
aI15292
aI15305
aI15310
aI15311
aI15317
aI15318
aI15322
aI15336
aI15341
aI15342
aI15343
aI15345
aI15350
aI15351
aI15352
aI15354
aI15360
aI15361
aI15367
aI15368
aI15375
aI15381
aI15382
aI15384
aI15388
aI15389
aI15390
aI15391
aI15393
aI15398
aI15399
aI15400
aI15402
aI15408
aI15409
aI15411
aI15417
aI15418
aI15423
aI15424
aI15425
aI15429
aI15431
aI15437
aI15441
aI15442
aI15443
aI15446
aI15450
aI15451
aI15452
aI15454
aI15458
aI15459
aI15460
aI15466
aI15467
aI15483
aI15488
aI15489
aI15490
aI15492
aI15497
aI15498
aI15499
aI15501
aI15507
aI15508
aI15514
aI15515
aI15519
aI15521
aI15535
aI15540
aI15541
aI15542
aI15544
aI15549
aI15550
aI15551
aI15553
aI15559
aI15560
aI15566
aI15567
aI15571
aI15577
aI15581
aI15582
aI15584
aI15588
aI15589
aI15595
aI15596
aI15597
aI15601
aI15603
aI15609
aI15613
aI15614
aI15615
aI15617
aI15622
aI15623
aI15625
aI15629
aI15630
aI15631
aI15637
aI15638
aI15642
aI15655
aI15659
aI15660
aI15661
aI15663
aI15668
aI15669
aI15671
aI15676
aI15677
aI15683
aI15684
aI15688
aI15702
aI15707
aI15708
aI15709
aI15711
aI15717
aI15718
aI15724
aI15725
aI15729
aI15752
aI15756
aI15757
aI15758
aI15759
aI15761
aI15766
aI15767
aI15768
aI15770
aI15774
aI15775
aI15776
aI15777
aI15779
aI15783
aI15784
aI15785
aI15786
aI15788
aI15793
aI15794
aI15795
aI15797
aI15802
aI15803
aI15804
aI15806
aI15810
aI15811
aI15812
aI15813
aI15820
aI15821
aI15825
aI15827
aI15832
aI15838
aI15840
aI15845
aI15846
aI15852
aI15853
aI15870
aI15875
aI15876
aI15882
aI15883
aI15889
aI15902
aI15906
aI15907
aI15908
aI15910
aI15915
aI15916
aI15918
aI15923
aI15924
aI15930
aI15931
aI15935
aI15949
aI15954
aI15955
aI15956
aI15958
aI15963
aI15964
aI15965
aI15967
aI15973
aI15974
aI15980
aI15981
aI15985
aI15998
aI16003
aI16004
aI16006
aI16011
aI16012
aI16018
aI16019
aI16023
aI16036
aI16040
aI16041
aI16042
aI16044
aI16049
aI16050
aI16052
aI16057
aI16058
aI16064
aI16065
aI16083
aI16093
aI16094
aI16095
aI16097
aI16099
aI16102
aI16105
aI16110
aI16114
aI16115
aI16116
aI16117
aI16119
aI16124
aI16125
aI16126
aI16128
aI16132
aI16133
aI16134
aI16135
aI16137
aI16143
aI16144
aI16146
aI16152
aI16153
aI16159
aI16160
aI16164
aI16166
aI16173
aI16177
aI16178
aI16179
aI16181
aI16188
aI16192
aI16193
aI16194
aI16196
aI16198
aI16200
aI16204
aI16208
aI16209
aI16211
aI16218
aI16222
aI16223
aI16230
aI16231
aI16232
aI16236
aI16238
aI16241
aI16254
aI16259
aI16260
aI16262
aI16266
aI16267
aI16268
aI16270
aI16275
aI16276
aI16282
aI16283
aI16292
aI16298
aI16300
aI16304
aI16305
aI16306
aI16308
aI16316
aI16321
aI16322
aI16324
aI16329
aI16330
aI16336
aI16337
aI16343
aI16350
aI16354
aI16355
aI16356
aI16358
aI16360
aI16366
aI16367
aI16371
aI16372
aI16375
aI16379
aI16380
aI16385
aI16386
aI16387
aI16401
aI16406
aI16407
aI16408
aI16410
aI16414
aI16415
aI16416
aI16417
aI16419
aI16424
aI16425
aI16426
aI16428
aI16434
aI16435
aI16441
aI16442
aI16446
aI16448
aI16450
aI16462
aI16469
aI16473
aI16474
aI16480
aI16481
aI16495
aI16500
aI16501
aI16502
aI16504
aI16510
aI16511
aI16517
aI16518
aI16522
aI16524
aI16529
aI16536
aI16540
aI16541
aI16548
aI16549
aI16551
aI16564
aI16569
aI16570
aI16576
aI16577
aI16581
aI16591
aI16592
aI16593
aI16596
aI16600
aI16609
aI16614
aI16615
aI16616
aI16618
aI16623
aI16624
aI16625
aI16627
aI16632
aI16633
aI16634
aI16636
aI16641
aI16642
aI16643
aI16645
aI16650
aI16651
aI16652
aI16654
aI16659
aI16660
aI16661
aI16663
aI16668
aI16669
aI16670
aI16672
aI16678
aI16679
aI16685
aI16686
aI16690
aI16704
aI16709
aI16710
aI16711
aI16713
aI16719
aI16720
aI16726
aI16727
aI16731
aI16737
aI16744
aI16748
aI16749
aI16751
aI16755
aI16756
aI16762
aI16763
aI16777
aI16782
aI16783
aI16784
aI16786
aI16791
aI16792
aI16793
aI16795
aI16800
aI16801
aI16802
aI16804
aI16809
aI16810
aI16811
aI16813
aI16818
aI16819
aI16820
aI16822
aI16828
aI16829
aI16835
aI16836
aI16840
aI16842
aI16854
aI16861
aI16865
aI16866
aI16872
aI16873
aI16875
aI16882
aI16886
aI16887
aI16888
aI16890
aI16892
aI16894
aI16908
aI16913
aI16914
aI16915
aI16917
aI16921
aI16922
aI16923
aI16924
aI16926
aI16931
aI16932
aI16933
aI16935
aI16940
aI16941
aI16942
aI16944
aI16950
aI16951
aI16953
aI16959
aI16960
aI16966
aI16967
aI16971
aI16992
aI16996
aI16997
aI16998
aI17000
aI17004
aI17005
aI17006
aI17008
aI17012
aI17013
aI17014
aI17016
aI17020
aI17021
aI17022
aI17024
aI17028
aI17029
aI17030
aI17036
aI17037
aI17058
aI17071
aI17075
aI17076
aI17077
aI17082
aI17083
aI17084
aI17088
aI17098
aI17099
aI17100
aI17102
aI17112
aI17113
aI17114
aI17116
aI17126
aI17127
aI17128
aI17130
aI17132
aI17135
aI17138
aI17143
aI17147
aI17148
aI17149
aI17151
aI17155
aI17156
aI17157
aI17163
aI17164
aI17168
aI17182
aI17186
aI17187
aI17188
aI17189
aI17191
aI17196
aI17197
aI17198
aI17200
aI17206
aI17207
aI17213
aI17214
aI17218
aI17231
aI17236
aI17237
aI17243
aI17244
aI17248
aI17261
aI17266
aI17267
aI17273
aI17274
aI17278
aI17280
aI17290
aI17291
aI17292
aI17294
aI17301
aI17305
aI17306
aI17307
aI17320
aI17324
aI17325
aI17330
aI17331
aI17332
aI17333
aI17356
aI17360
aI17361
aI17362
aI17364
aI17368
aI17369
aI17370
aI17372
aI17376
aI17377
aI17378
aI17380
aI17384
aI17385
aI17386
aI17388
aI17392
aI17393
aI17394
aI17396
aI17400
aI17401
aI17402
aI17404
aI17409
aI17410
aI17412
aI17417
aI17418
aI17420
aI17424
aI17425
aI17426
aI17432
aI17433
atp2
Rp3
.